
secret:     file format elf64-littleaarch64


Disassembly of section .interp:

0000000000400190 <.interp>:
  400190:	62696c2f 	.inst	0x62696c2f ; undefined
  400194:	2d646c2f 	ldp	s15, s27, [x1, #-224]
  400198:	756e696c 	.inst	0x756e696c ; undefined
  40019c:	61612d78 	.inst	0x61612d78 ; undefined
  4001a0:	36686372 	tbz	w18, #13, 400e0c <_start+0x9d8>
  4001a4:	6f732e34 	.inst	0x6f732e34 ; undefined
  4001a8:	Address 0x00000000004001a8 is out of bounds.


Disassembly of section .hash:

00000000004001b0 <.hash>:
  4001b0:	00000003 	.inst	0x00000003 ; undefined
  4001b4:	00000004 	.inst	0x00000004 ; undefined
  4001b8:	00000000 	.inst	0x00000000 ; undefined
  4001bc:	00000001 	.inst	0x00000001 ; undefined
  4001c0:	00000003 	.inst	0x00000003 ; undefined
	...
  4001d0:	00000002 	.inst	0x00000002 ; undefined

Disassembly of section .gnu.hash:

00000000004001d8 <.gnu.hash>:
  4001d8:	00000001 	.inst	0x00000001 ; undefined
  4001dc:	00000001 	.inst	0x00000001 ; undefined
  4001e0:	00000001 	.inst	0x00000001 ; undefined
	...

Disassembly of section .dynsym:

00000000004001f8 <.dynsym>:
	...
  400210:	00000019 	.inst	0x00000019 ; undefined
  400214:	00000012 	.inst	0x00000012 ; undefined
	...
  400228:	00000012 	.inst	0x00000012 ; undefined
  40022c:	00000012 	.inst	0x00000012 ; undefined
	...
  400240:	0000000b 	.inst	0x0000000b ; undefined
  400244:	00000012 	.inst	0x00000012 ; undefined
	...

Disassembly of section .dynstr:

0000000000400258 <.dynstr>:
  400258:	62696c00 	.inst	0x62696c00 ; undefined
  40025c:	6f732e63 	.inst	0x6f732e63 ; undefined
  400260:	7000362e 	adr	x14, 400927 <_start+0x4f3>
  400264:	746e6972 	.inst	0x746e6972 ; undefined
  400268:	616d0066 	.inst	0x616d0066 ; undefined
  40026c:	636f6c6c 	.inst	0x636f6c6c ; undefined
  400270:	61637300 	.inst	0x61637300 ; undefined
  400274:	4700666e 	.inst	0x4700666e ; undefined
  400278:	4342494c 	.inst	0x4342494c ; undefined
  40027c:	312e325f 	cmn	w18, #0xb8c
  400280:	Address 0x0000000000400280 is out of bounds.


Disassembly of section .gnu.version:

0000000000400282 <.gnu.version>:
  400282:	00020000 	.inst	0x00020000 ; undefined
  400286:	00020002 	.inst	0x00020002 ; undefined

Disassembly of section .gnu.version_r:

0000000000400290 <.gnu.version_r>:
  400290:	00010001 	.inst	0x00010001 ; undefined
  400294:	00000001 	.inst	0x00000001 ; undefined
  400298:	00000010 	.inst	0x00000010 ; undefined
  40029c:	00000000 	.inst	0x00000000 ; undefined
  4002a0:	06969197 	.inst	0x06969197 ; undefined
  4002a4:	00020000 	.inst	0x00020000 ; undefined
  4002a8:	0000001f 	.inst	0x0000001f ; undefined
  4002ac:	00000000 	.inst	0x00000000 ; undefined

Disassembly of section .rela.plt:

00000000004002b0 <.rela.plt>:
  4002b0:	00411000 	.inst	0x00411000 ; undefined
  4002b4:	00000000 	.inst	0x00000000 ; undefined
  4002b8:	00000402 	.inst	0x00000402 ; undefined
  4002bc:	00000001 	.inst	0x00000001 ; undefined
	...
  4002c8:	00411008 	.inst	0x00411008 ; undefined
  4002cc:	00000000 	.inst	0x00000000 ; undefined
  4002d0:	00000402 	.inst	0x00000402 ; undefined
  4002d4:	00000002 	.inst	0x00000002 ; undefined
	...
  4002e0:	00411010 	.inst	0x00411010 ; undefined
  4002e4:	00000000 	.inst	0x00000000 ; undefined
  4002e8:	00000402 	.inst	0x00000402 ; undefined
  4002ec:	00000003 	.inst	0x00000003 ; undefined
	...

Disassembly of section .plt:

0000000000400300 <.plt>:
  400300:	a9bf7bf0 	stp	x16, x30, [sp, #-16]!
  400304:	90000090 	adrp	x16, 410000 <_start+0xfbcc>
  400308:	f947fe11 	ldr	x17, [x16, #4088]
  40030c:	913fe210 	add	x16, x16, #0xff8
  400310:	d61f0220 	br	x17
  400314:	d503201f 	nop
  400318:	d503201f 	nop
  40031c:	d503201f 	nop

0000000000400320 <scanf@plt>:
  400320:	b0000090 	adrp	x16, 411000 <scanf@GLIBC_2.17>
  400324:	f9400211 	ldr	x17, [x16]
  400328:	91000210 	add	x16, x16, #0x0
  40032c:	d61f0220 	br	x17

0000000000400330 <malloc@plt>:
  400330:	b0000090 	adrp	x16, 411000 <scanf@GLIBC_2.17>
  400334:	f9400611 	ldr	x17, [x16, #8]
  400338:	91002210 	add	x16, x16, #0x8
  40033c:	d61f0220 	br	x17

0000000000400340 <printf@plt>:
  400340:	b0000090 	adrp	x16, 411000 <scanf@GLIBC_2.17>
  400344:	f9400a11 	ldr	x17, [x16, #16]
  400348:	91004210 	add	x16, x16, #0x10
  40034c:	d61f0220 	br	x17

Disassembly of section .text:

0000000000400350 <generate>:
  400350:	d10043ff 	sub	sp, sp, #0x10
  400354:	f90007fe 	str	x30, [sp, #8]
  400358:	58000801 	ldr	x1, 400458 <_start+0x24>
  40035c:	d2800002 	mov	x2, #0x0                   	// #0

0000000000400360 <LOAD>:
  400360:	39400023 	ldrb	w3, [x1]
  400364:	5100c063 	sub	w3, w3, #0x30
  400368:	d10007ff 	sub	sp, sp, #0x1
  40036c:	390003e3 	strb	w3, [sp]
  400370:	91000442 	add	x2, x2, #0x1
  400374:	91000421 	add	x1, x1, #0x1
  400378:	f100205f 	cmp	x2, #0x8
  40037c:	54ffff21 	b.ne	400360 <LOAD>  // b.any

0000000000400380 <L2>:
  400380:	39401ff3 	ldrb	w19, [sp, #7]
  400384:	394017f4 	ldrb	w20, [sp, #5]
  400388:	39400ff5 	ldrb	w21, [sp, #3]
  40038c:	0b140273 	add	w19, w19, w20
  400390:	0b150273 	add	w19, w19, w21
  400394:	39401bf4 	ldrb	w20, [sp, #6]
  400398:	394003f5 	ldrb	w21, [sp]
  40039c:	0b150294 	add	w20, w20, w21
  4003a0:	394013f5 	ldrb	w21, [sp, #4]
  4003a4:	394007f6 	ldrb	w22, [sp, #1]
  4003a8:	39400bf7 	ldrb	w23, [sp, #2]
  4003ac:	0b1602b5 	add	w21, w21, w22
  4003b0:	0b1702b5 	add	w21, w21, w23
  4003b4:	d2800060 	mov	x0, #0x3                   	// #3
  4003b8:	d10007ff 	sub	sp, sp, #0x1
  4003bc:	f90003fe 	str	x30, [sp]
  4003c0:	97ffffdc 	bl	400330 <malloc@plt>
  4003c4:	f94003fe 	ldr	x30, [sp]
  4003c8:	910007ff 	add	sp, sp, #0x1
  4003cc:	52800bb6 	mov	w22, #0x5d                  	// #93
  4003d0:	52800417 	mov	w23, #0x20                  	// #32
  4003d4:	d2800018 	mov	x24, #0x0                   	// #0

00000000004003d8 <L3>:
  4003d8:	f100031f 	cmp	x24, #0x0
  4003dc:	540000c0 	b.eq	4003f4 <CHAR1>  // b.none
  4003e0:	f100071f 	cmp	x24, #0x1
  4003e4:	540000c0 	b.eq	4003fc <CHAR2>  // b.none
  4003e8:	f1000b1f 	cmp	x24, #0x2
  4003ec:	540000c0 	b.eq	400404 <CHAR3>  // b.none
  4003f0:	1400000d 	b	400424 <L4>

00000000004003f4 <CHAR1>:
  4003f4:	531d7273 	lsl	w19, w19, #3
  4003f8:	14000004 	b	400408 <TRANSFORM>

00000000004003fc <CHAR2>:
  4003fc:	0a150293 	and	w19, w20, w21
  400400:	14000002 	b	400408 <TRANSFORM>

0000000000400404 <CHAR3>:
  400404:	2a150293 	orr	w19, w20, w21

0000000000400408 <TRANSFORM>:
  400408:	1ad60e64 	sdiv	w4, w19, w22
  40040c:	1b16cc93 	msub	w19, w4, w22, w19
  400410:	0b170273 	add	w19, w19, w23
  400414:	8b18000c 	add	x12, x0, x24
  400418:	39000193 	strb	w19, [x12]
  40041c:	91000718 	add	x24, x24, #0x1
  400420:	17ffffee 	b	4003d8 <L3>

0000000000400424 <L4>:
  400424:	910023ff 	add	sp, sp, #0x8
  400428:	f94007fe 	ldr	x30, [sp, #8]
  40042c:	910043ff 	add	sp, sp, #0x10
  400430:	d61f03c0 	br	x30

0000000000400434 <_start>:
  400434:	58000160 	ldr	x0, 400460 <_start+0x2c>
  400438:	97ffffc2 	bl	400340 <printf@plt>
  40043c:	58000160 	ldr	x0, 400468 <_start+0x34>
  400440:	580000c1 	ldr	x1, 400458 <_start+0x24>
  400444:	97ffffb7 	bl	400320 <scanf@plt>
  400448:	97ffffc2 	bl	400350 <generate>
  40044c:	d2800000 	mov	x0, #0x0                   	// #0
  400450:	52800ba8 	mov	w8, #0x5d                  	// #93
  400454:	d4000001 	svc	#0x0
  400458:	00411038 	.inst	0x00411038 ; undefined
  40045c:	00000000 	.inst	0x00000000 ; undefined
  400460:	00411018 	.inst	0x00411018 ; undefined
  400464:	00000000 	.inst	0x00000000 ; undefined
  400468:	00411036 	.inst	0x00411036 ; undefined
  40046c:	00000000 	.inst	0x00000000 ; undefined

Disassembly of section .dynamic:

0000000000410e90 <_DYNAMIC>:
  410e90:	00000001 	.inst	0x00000001 ; undefined
  410e94:	00000000 	.inst	0x00000000 ; undefined
  410e98:	00000001 	.inst	0x00000001 ; undefined
  410e9c:	00000000 	.inst	0x00000000 ; undefined
  410ea0:	00000004 	.inst	0x00000004 ; undefined
  410ea4:	00000000 	.inst	0x00000000 ; undefined
  410ea8:	004001b0 	.inst	0x004001b0 ; undefined
  410eac:	00000000 	.inst	0x00000000 ; undefined
  410eb0:	6ffffef5 	.inst	0x6ffffef5 ; undefined
  410eb4:	00000000 	.inst	0x00000000 ; undefined
  410eb8:	004001d8 	.inst	0x004001d8 ; undefined
  410ebc:	00000000 	.inst	0x00000000 ; undefined
  410ec0:	00000005 	.inst	0x00000005 ; undefined
  410ec4:	00000000 	.inst	0x00000000 ; undefined
  410ec8:	00400258 	.inst	0x00400258 ; undefined
  410ecc:	00000000 	.inst	0x00000000 ; undefined
  410ed0:	00000006 	.inst	0x00000006 ; undefined
  410ed4:	00000000 	.inst	0x00000000 ; undefined
  410ed8:	004001f8 	.inst	0x004001f8 ; undefined
  410edc:	00000000 	.inst	0x00000000 ; undefined
  410ee0:	0000000a 	.inst	0x0000000a ; undefined
  410ee4:	00000000 	.inst	0x00000000 ; undefined
  410ee8:	0000002a 	.inst	0x0000002a ; undefined
  410eec:	00000000 	.inst	0x00000000 ; undefined
  410ef0:	0000000b 	.inst	0x0000000b ; undefined
  410ef4:	00000000 	.inst	0x00000000 ; undefined
  410ef8:	00000018 	.inst	0x00000018 ; undefined
  410efc:	00000000 	.inst	0x00000000 ; undefined
  410f00:	00000015 	.inst	0x00000015 ; undefined
	...
  410f10:	00000003 	.inst	0x00000003 ; undefined
  410f14:	00000000 	.inst	0x00000000 ; undefined
  410f18:	00410fe8 	.inst	0x00410fe8 ; undefined
  410f1c:	00000000 	.inst	0x00000000 ; undefined
  410f20:	00000002 	.inst	0x00000002 ; undefined
  410f24:	00000000 	.inst	0x00000000 ; undefined
  410f28:	00000048 	.inst	0x00000048 ; undefined
  410f2c:	00000000 	.inst	0x00000000 ; undefined
  410f30:	00000014 	.inst	0x00000014 ; undefined
  410f34:	00000000 	.inst	0x00000000 ; undefined
  410f38:	00000007 	.inst	0x00000007 ; undefined
  410f3c:	00000000 	.inst	0x00000000 ; undefined
  410f40:	00000017 	.inst	0x00000017 ; undefined
  410f44:	00000000 	.inst	0x00000000 ; undefined
  410f48:	004002b0 	.inst	0x004002b0 ; undefined
  410f4c:	00000000 	.inst	0x00000000 ; undefined
  410f50:	6ffffffe 	.inst	0x6ffffffe ; undefined
  410f54:	00000000 	.inst	0x00000000 ; undefined
  410f58:	00400290 	.inst	0x00400290 ; undefined
  410f5c:	00000000 	.inst	0x00000000 ; undefined
  410f60:	6fffffff 	.inst	0x6fffffff ; undefined
  410f64:	00000000 	.inst	0x00000000 ; undefined
  410f68:	00000001 	.inst	0x00000001 ; undefined
  410f6c:	00000000 	.inst	0x00000000 ; undefined
  410f70:	6ffffff0 	.inst	0x6ffffff0 ; undefined
  410f74:	00000000 	.inst	0x00000000 ; undefined
  410f78:	00400282 	.inst	0x00400282 ; undefined
	...

Disassembly of section .got:

0000000000410fe0 <_GLOBAL_OFFSET_TABLE_>:
  410fe0:	00410e90 	.inst	0x00410e90 ; undefined
  410fe4:	00000000 	.inst	0x00000000 ; undefined

Disassembly of section .got.plt:

0000000000410fe8 <.got.plt>:
	...
  411000:	00400300 	.inst	0x00400300 ; undefined
  411004:	00000000 	.inst	0x00000000 ; undefined
  411008:	00400300 	.inst	0x00400300 ; undefined
  41100c:	00000000 	.inst	0x00000000 ; undefined
  411010:	00400300 	.inst	0x00400300 ; undefined
  411014:	00000000 	.inst	0x00000000 ; undefined

Disassembly of section .data:

0000000000411018 <msg>:
  411018:	61656c50 	.inst	0x61656c50 ; undefined
  41101c:	74206573 	.inst	0x74206573 ; undefined
  411020:	20657079 	.inst	0x20657079 ; undefined
  411024:	72756f79 	.inst	0x72756f79 ; undefined
  411028:	65745320 	fnmla	z0.h, p4/m, z25.h, z20.h
  41102c:	736e6576 	.inst	0x736e6576 ; undefined
  411030:	3a444920 	ccmn	w9, #0x4, #0x0, mi  // mi = first
  411034:	 	.inst	0x7325000a ; undefined

0000000000411036 <input_fmt>:
  411036:	Address 0x0000000000411036 is out of bounds.


Disassembly of section .bss:

0000000000411038 <__bss_start>:
	...
